; Function Attrs: mustprogress uwtable
define void @_ZNK5boost10stacktrace5frame4nameB5cxx11Ev(ptr dead_on_unwind noalias writable sret(%"class.std::__cxx11::basic_string") align 8 %0, ptr nocapture noundef nonnull readonly align 8 dereferenceable(8) %1) local_unnamed_addr #8 align 2 personality ptr @__gxx_personality_v0 {
  %3 = alloca %struct.Dl_info, align 8
  %4 = load ptr, ptr %1, align 8, !tbaa !12
  %.not = icmp eq ptr %4, null
  br i1 %.not, label %5, label %8

5:                                                ; preds = %2
  %6 = getelementptr inbounds nuw i8, ptr %0, i64 16
  store ptr %6, ptr %0, align 8, !tbaa !20
  %7 = getelementptr inbounds nuw i8, ptr %0, i64 8
  store i64 0, ptr %7, align 8, !tbaa !14
  store i8 0, ptr %6, align 8, !tbaa !19
  br label %18

8:                                                ; preds = %2
  call void @llvm.lifetime.start.p0(i64 32, ptr nonnull %3) #24
  %9 = call noundef i32 @dladdr(ptr noundef nonnull %4, ptr noundef nonnull align 8 dereferenceable(32) %3) #24
  %10 = icmp ne i32 %9, 0
  %11 = getelementptr inbounds nuw i8, ptr %3, i64 16
  %12 = load ptr, ptr %11, align 8
  %13 = icmp ne ptr %12, null
  %or.cond = select i1 %10, i1 %13, i1 false
  br i1 %or.cond, label %14, label %15

14:                                               ; preds = %8
  call void @_ZN5boost4core8demangleB5cxx11EPKc(ptr dead_on_unwind writable sret(%"class.std::__cxx11::basic_string") align 8 %0, ptr noundef nonnull %12)
  br label %17

15:                                               ; preds = %8
  %16 = load ptr, ptr %1, align 8, !tbaa !12
  call void @_ZN5boost10stacktrace6detail9name_implB5cxx11EPKv(ptr dead_on_unwind writable sret(%"class.std::__cxx11::basic_string") align 8 %0, ptr noundef %16)
  br label %17

17:                                               ; preds = %15, %14
  call void @llvm.lifetime.end.p0(i64 32, ptr nonnull %3) #24
  br label %18

18:                                               ; preds = %17, %5
  ret void
}